; Function Attrs: nounwind uwtable
define hidden void @png_benign_error(ptr noalias noundef %0, ptr noundef %1) local_unnamed_addr #3 {
  %3 = getelementptr inbounds i8, ptr %0, i64 292
  %4 = load <2 x i32>, ptr %3, align 4
  %5 = and <2 x i32> %4, <i32 32768, i32 1048576>
  %6 = icmp eq <2 x i32> %5, zeroinitializer
  %7 = extractelement <2 x i1> %6, i64 1
  br i1 %7, label %29, label %8

8:                                                ; preds = %2
  %9 = extractelement <2 x i1> %6, i64 0
  br i1 %9, label %14, label %10

10:                                               ; preds = %8
  %11 = getelementptr inbounds i8, ptr %0, i64 456
  %12 = load i32, ptr %11, align 8
  %.not16 = icmp eq i32 %12, 0
  br i1 %.not16, label %14, label %13

13:                                               ; preds = %10
  tail call void @png_chunk_warning(ptr noundef nonnull %0, ptr noundef %1)
  br label %png_warning.exit

14:                                               ; preds = %8, %10
  tail call void @llvm.experimental.noalias.scope.decl(metadata !16)
  %15 = load i8, ptr %1, align 1, !noalias !16
  %16 = icmp eq i8 %15, 35
  br i1 %16, label %.preheader.i, label %.thread21.i

.preheader.i:                                     ; preds = %14, %20
  %indvars.iv.i = phi i64 [ %indvars.iv.next.i, %20 ], [ 1, %14 ]
  %17 = getelementptr inbounds i8, ptr %1, i64 %indvars.iv.i
  %18 = load i8, ptr %17, align 1, !noalias !16
  %19 = icmp eq i8 %18, 32
  br i1 %19, label %.thread21.loopexit.i, label %20

20:                                               ; preds = %.preheader.i
  %indvars.iv.next.i = add nuw nsw i64 %indvars.iv.i, 1
  %exitcond.not.i = icmp eq i64 %indvars.iv.next.i, 15
  br i1 %exitcond.not.i, label %.thread21.loopexit.i, label %.preheader.i, !llvm.loop !9

.thread21.loopexit.i:                             ; preds = %20, %.preheader.i
  %.123.ph.i = phi i64 [ 15, %20 ], [ %indvars.iv.i, %.preheader.i ]
  %21 = and i64 %.123.ph.i, 4294967295
  br label %.thread21.i

.thread21.i:                                      ; preds = %.thread21.loopexit.i, %14
  %.123.i = phi i64 [ 0, %14 ], [ %21, %.thread21.loopexit.i ]
  %22 = getelementptr inbounds i8, ptr %0, i64 232
  %23 = load ptr, ptr %22, align 8, !alias.scope !16
  %.not17.i = icmp eq ptr %23, null
  %24 = getelementptr inbounds i8, ptr %1, i64 %.123.i
  br i1 %.not17.i, label %.split14.i, label %28

.split14.i:                                       ; preds = %.thread21.i
  %25 = load ptr, ptr @stderr, align 8, !noalias !16
  %26 = tail call i32 (ptr, ptr, ...) @fprintf(ptr noundef %25, ptr noundef nonnull @.str.7, ptr noundef nonnull %24) #19
  %27 = load ptr, ptr @stderr, align 8, !noalias !16
  %fputc.i18.i = tail call i32 @fputc(i32 10, ptr %27)
  br label %png_warning.exit

28:                                               ; preds = %.thread21.i
  tail call void %23(ptr noundef nonnull %0, ptr noundef nonnull %24) #17
  br label %png_warning.exit

29:                                               ; preds = %2
  %30 = extractelement <2 x i1> %6, i64 0
  br i1 %30, label %35, label %31

31:                                               ; preds = %29
  %32 = getelementptr inbounds i8, ptr %0, i64 456
  %33 = load i32, ptr %32, align 8
  %.not14 = icmp eq i32 %33, 0
  br i1 %.not14, label %35, label %34

34:                                               ; preds = %31
  tail call void @png_chunk_error(ptr noundef nonnull %0, ptr noundef %1) #18
  unreachable

35:                                               ; preds = %31, %29
  tail call void @png_error(ptr noundef nonnull %0, ptr noundef %1) #18
  unreachable

png_warning.exit:                                 ; preds = %28, %.split14.i, %13
  ret void
}